; Function Attrs: mustprogress uwtable
define void @_ZN2cv15NAryMatIteratorC2EPPKNS_3MatEPPhi(ptr noundef nonnull align 8 captures(none) dereferenceable(64) initializes((0, 28), (32, 52), (56, 64)) %0, ptr noundef %1, ptr noundef %2, i32 noundef %3) unnamed_addr #1 align 2 {
  %5 = getelementptr inbounds nuw i8, ptr %0, i64 32
  %6 = getelementptr inbounds nuw i8, ptr %0, i64 56
  store i64 0, ptr %6, align 8, !tbaa !3
  tail call void @llvm.memset.p0.i64(ptr noundef nonnull align 8 dereferenceable(28) %0, i8 0, i64 28, i1 false)
  tail call void @llvm.memset.p0.i64(ptr noundef nonnull align 8 dereferenceable(20) %5, i8 0, i64 20, i1 false)
  tail call void @_ZN2cv15NAryMatIterator4initEPPKNS_3MatEPS1_PPhi(ptr noundef nonnull align 8 dereferenceable(64) %0, ptr noundef %1, ptr noundef null, ptr noundef %2, i32 noundef %3)
  ret void
}